; Function Attrs: mustprogress nofree norecurse nosync nounwind willreturn memory(argmem: read) uwtable
define noundef i64 @_ZNK7rocksdb16ShardedCacheBase23ComputePerShardCapacityEm(ptr noundef nonnull readonly align 8 captures(none) dereferenceable(152) %0, i64 noundef %1) local_unnamed_addr #3 align 2 {
  %3 = getelementptr inbounds nuw i8, ptr %0, i64 88
  %4 = load i32, ptr %3, align 8, !tbaa !29
  %5 = add i32 %4, 1
  %6 = zext i32 %4 to i64
  %7 = add i64 %1, %6
  %8 = zext i32 %5 to i64
  %9 = udiv i64 %7, %8
  ret i64 %9
}